; Function Attrs: mustprogress nounwind uwtable
define dso_local void @_ZN4llvm16MCObjectStreamer9emitLabelEPNS_8MCSymbolENS_5SMLocE(ptr noundef nonnull align 8 dereferenceable(424) %0, ptr noundef %1, ptr %2) unnamed_addr #0 align 2 {
  tail call void @_ZN4llvm10MCStreamer9emitLabelEPNS_8MCSymbolENS_5SMLocE(ptr noundef nonnull align 8 dereferenceable(288) %0, ptr noundef %1, ptr %2) #20
  %4 = getelementptr inbounds nuw i8, ptr %0, i64 288
  %5 = load ptr, ptr %4, align 8
  %6 = tail call noundef zeroext i1 @_ZN4llvm11MCAssembler14registerSymbolERKNS_8MCSymbolE(ptr noundef nonnull align 8 dereferenceable(372) %5, ptr noundef nonnull align 8 dereferenceable(32) %1) #20
  %7 = tail call noundef ptr @_ZN4llvm16MCObjectStreamer23getOrCreateDataFragmentEPKNS_15MCSubtargetInfoE(ptr noundef nonnull align 8 dereferenceable(424) %0, ptr noundef null)
  store ptr %7, ptr %1, align 8
  %8 = getelementptr inbounds nuw i8, ptr %7, i64 40
  %9 = tail call noundef i64 @_ZNK4llvm15SmallVectorBaseImE4sizeEv(ptr noundef nonnull align 8 dereferenceable(24) %8) #20
  %10 = getelementptr inbounds nuw i8, ptr %1, i64 24
  store i64 %9, ptr %10, align 8
  %11 = getelementptr inbounds nuw i8, ptr %1, i64 8
  %12 = load i64, ptr %11, align 8
  %13 = and i64 %12, -28673
  %14 = or disjoint i64 %13, 4096
  store i64 %14, ptr %11, align 8
  tail call void @_ZN4llvm16MCObjectStreamer22emitPendingAssignmentsEPNS_8MCSymbolE(ptr noundef nonnull align 8 dereferenceable(424) %0, ptr noundef nonnull %1)
  ret void
}